(lp0
S'poi'
p1
aS'salary'
p2
aS'total_payments'
p3
aS'bonus'
p4
aS'long_term_incentive'
p5
aS'expenses'
p6
aS'total_stock_value'
p7
aS'poi_messages'
p8
aS'exercised_stock_options'
p9
aS'from_poi_to_this_person'
p10
aS'from_this_person_to_poi'
p11
aS'shared_receipt_with_poi'
p12
a.